target datalayout = "e-m:e-p270:32:32-p271:32:32-p272:64:64-i64:64-i128:128-f80:128-n8:16:32:64-S128"
target triple = "x86_64-pc-linux-gnu"

%struct.rb_data_type_struct = type { ptr, %struct.anon.5, ptr, ptr, i64 }
%struct.anon.5 = type { ptr, ptr, ptr, ptr, [1 x ptr] }
%struct.rb_econv_t = type { i32, i32, ptr, ptr, ptr, i64, ptr, ptr, ptr, ptr, ptr, ptr, i32, i32, i32, i32, ptr, %struct.anon, ptr, ptr }
%struct.anon = type { i32, ptr, ptr, ptr, ptr, i64, i64 }

@econv_data_type = internal constant %struct.rb_data_type_struct { ptr @.str.110, %struct.anon.5 { ptr null, ptr @econv_free, ptr @econv_memsize, ptr null, [1 x ptr] zeroinitializer }, ptr null, ptr null, i64 1 }, align 8
@.str.116 = private unnamed_addr constant [21 x i8] c"#<%s: uninitialized>\00", align 1
@.str.117 = private unnamed_addr constant [7 x i8] c"#<%s: \00", align 1
@.str.118 = private unnamed_addr constant [2 x i8] c">\00", align 1

; Function Attrs: inlinehint nounwind sspstrong uwtable
define internal i64 @rbimpl_strlen(ptr noundef nonnull %0) #7 {
  %2 = alloca ptr, align 8
  store ptr %0, ptr %2, align 8, !tbaa !21
  %3 = load ptr, ptr %2, align 8, !tbaa !21
  %4 = call i64 @strlen(ptr noundef %3) #29
  ret i64 %4
}

; Function Attrs: inlinehint nounwind sspstrong uwtable
define internal i64 @rbimpl_str_cat_cstr(i64 noundef %0, ptr noundef nonnull %1) #7 {
  %3 = alloca i64, align 8
  %4 = alloca ptr, align 8
  %5 = alloca i64, align 8
  store i64 %0, ptr %3, align 8, !tbaa !12
  store ptr %1, ptr %4, align 8, !tbaa !21
  call void @llvm.lifetime.start.p0(i64 8, ptr %5) #25
  %6 = load ptr, ptr %4, align 8, !tbaa !21
  %7 = call i64 @rbimpl_strlen(ptr noundef %6)
  store i64 %7, ptr %5, align 8, !tbaa !12
  %8 = load i64, ptr %3, align 8, !tbaa !12
  %9 = load ptr, ptr %4, align 8, !tbaa !21
  %10 = load i64, ptr %5, align 8, !tbaa !12
  %11 = call i64 @rb_str_cat(i64 noundef %8, ptr noundef %9, i64 noundef %10)
  call void @llvm.lifetime.end.p0(i64 8, ptr %5) #25
  ret i64 %11
}

; Function Attrs: nounwind sspstrong uwtable
define internal i64 @econv_inspect(i64 noundef %0) #0 {
  %2 = alloca i64, align 8
  %3 = alloca i64, align 8
  %4 = alloca ptr, align 8
  %5 = alloca ptr, align 8
  %6 = alloca i32, align 4
  %7 = alloca ptr, align 8
  %8 = alloca ptr, align 8
  %9 = alloca i64, align 8
  store i64 %0, ptr %3, align 8, !tbaa !12
  call void @llvm.lifetime.start.p0(i64 8, ptr %4) #25
  %10 = load i64, ptr %3, align 8, !tbaa !12
  %11 = call ptr @rb_obj_classname(i64 noundef %10)
  store ptr %11, ptr %4, align 8, !tbaa !21
  call void @llvm.lifetime.start.p0(i64 8, ptr %5) #25
  %12 = load i64, ptr %3, align 8, !tbaa !12
  %13 = call ptr @rb_check_typeddata(i64 noundef %12, ptr noundef @econv_data_type)
  store ptr %13, ptr %5, align 8, !tbaa !30
  %14 = load ptr, ptr %5, align 8, !tbaa !30
  %15 = icmp ne ptr %14, null
  br i1 %15, label %19, label %16

16:                                               ; preds = %1
  %17 = load ptr, ptr %4, align 8, !tbaa !21
  %18 = call i64 (ptr, ...) @rb_sprintf(ptr noundef @.str.116, ptr noundef %17)
  store i64 %18, ptr %2, align 8
  store i32 1, ptr %6, align 4
  br label %38

19:                                               ; preds = %1
  call void @llvm.lifetime.start.p0(i64 8, ptr %7) #25
  %20 = load ptr, ptr %5, align 8, !tbaa !30
  %21 = getelementptr inbounds nuw %struct.rb_econv_t, ptr %20, i32 0, i32 2
  %22 = load ptr, ptr %21, align 8, !tbaa !45
  store ptr %22, ptr %7, align 8, !tbaa !21
  call void @llvm.lifetime.start.p0(i64 8, ptr %8) #25
  %23 = load ptr, ptr %5, align 8, !tbaa !30
  %24 = getelementptr inbounds nuw %struct.rb_econv_t, ptr %23, i32 0, i32 3
  %25 = load ptr, ptr %24, align 8, !tbaa !46
  store ptr %25, ptr %8, align 8, !tbaa !21
  call void @llvm.lifetime.start.p0(i64 8, ptr %9) #25
  %26 = load ptr, ptr %4, align 8, !tbaa !21
  %27 = call i64 (ptr, ...) @rb_sprintf(ptr noundef @.str.117, ptr noundef %26)
  store i64 %27, ptr %9, align 8, !tbaa !12
  %28 = load ptr, ptr %7, align 8, !tbaa !21
  %29 = load ptr, ptr %8, align 8, !tbaa !21
  %30 = load ptr, ptr %5, align 8, !tbaa !30
  %31 = getelementptr inbounds nuw %struct.rb_econv_t, ptr %30, i32 0, i32 0
  %32 = load i32, ptr %31, align 8, !tbaa !34
  %33 = load i64, ptr %9, align 8, !tbaa !12
  %34 = call i64 @econv_description(ptr noundef %28, ptr noundef %29, i32 noundef %32, i64 noundef %33)
  %35 = load i64, ptr %9, align 8, !tbaa !12
  %36 = call i64 @rbimpl_str_cat_cstr(i64 noundef %35, ptr noundef @.str.118)
  %37 = load i64, ptr %9, align 8, !tbaa !12
  store i64 %37, ptr %2, align 8
  store i32 1, ptr %6, align 4
  call void @llvm.lifetime.end.p0(i64 8, ptr %9) #25
  call void @llvm.lifetime.end.p0(i64 8, ptr %8) #25
  call void @llvm.lifetime.end.p0(i64 8, ptr %7) #25
  br label %38

38:                                               ; preds = %19, %16
  call void @llvm.lifetime.end.p0(i64 8, ptr %5) #25
  call void @llvm.lifetime.end.p0(i64 8, ptr %4) #25
  %39 = load i64, ptr %2, align 8
  ret i64 %39
}