; Function Attrs: nounwind sspstrong uwtable
define internal i64 @econv_inspect(i64 noundef %0) #0 {
  %2 = tail call ptr @rb_obj_classname(i64 noundef %0) #22
  %3 = tail call ptr @rb_check_typeddata(i64 noundef %0, ptr noundef nonnull @econv_data_type) #22
  %.not = icmp eq ptr %3, null
  br i1 %.not, label %4, label %6

4:                                                ; preds = %1
  %5 = tail call i64 (ptr, ...) @rb_sprintf(ptr noundef nonnull @.str.116, ptr noundef %2) #22
  br label %14

6:                                                ; preds = %1
  %7 = getelementptr inbounds nuw i8, ptr %3, i64 8
  %8 = load ptr, ptr %7, align 8, !tbaa !56
  %9 = getelementptr inbounds nuw i8, ptr %3, i64 16
  %10 = load ptr, ptr %9, align 8, !tbaa !57
  %11 = tail call i64 (ptr, ...) @rb_sprintf(ptr noundef nonnull @.str.117, ptr noundef %2) #22
  %12 = load i32, ptr %3, align 8, !tbaa !55
  tail call fastcc void @econv_description(ptr noundef %8, ptr noundef %10, i32 noundef %12, i64 noundef %11)
  %13 = tail call i64 @rb_str_cat(i64 noundef %11, ptr noundef nonnull @.str.118, i64 noundef 1) #22
  br label %14

14:                                               ; preds = %6, %4
  %.0 = phi i64 [ %11, %6 ], [ %5, %4 ]
  ret i64 %.0
}